target datalayout = "e-m:e-p270:32:32-p271:32:32-p272:64:64-i64:64-i128:128-f80:128-n8:16:32:64-S128"
target triple = "x86_64-pc-linux-gnu"

%struct.SDL_AtomicInt = type { i32 }

@ALSA_snd_device_name_hint = internal global ptr null, align 8
@ALSA_snd_device_name_get_hint = internal global ptr null, align 8
@.str.63 = private unnamed_addr constant [29 x i8] c"ALSA default playback device\00", align 1
@.str.64 = private unnamed_addr constant [30 x i8] c"ALSA default recording device\00", align 1
@ALSA_hotplug_shutdown = internal global %struct.SDL_AtomicInt zeroinitializer, align 4
@.str.65 = private unnamed_addr constant [15 x i8] c"SDLHotplugALSA\00", align 1
@ALSA_hotplug_thread = internal global ptr null, align 8
@ALSA_device_prefix = internal global ptr null, align 8
@ALSA_guess_device_prefix.prefixes = internal constant [3 x ptr] [ptr @.str.66, ptr @.str.67, ptr @.str.68], align 16
@.str.69 = private unnamed_addr constant [4 x i8] c"pcm\00", align 1
@.str.70 = private unnamed_addr constant [5 x i8] c"NAME\00", align 1
@.str.71 = private unnamed_addr constant [37 x i8] c"ALSA: device prefix is probably '%s'\00", align 1
@default_playback_handle = internal constant { ptr, ptr, i8, [7 x i8], ptr } { ptr @.str.75, ptr @.str.76, i8 0, [7 x i8] zeroinitializer, ptr null }, align 8
@default_recording_handle = internal constant { ptr, ptr, i8, [7 x i8], ptr } { ptr @.str.75, ptr @.str.76, i8 1, [7 x i8] zeroinitializer, ptr null }, align 8

; Function Attrs: nounwind uwtable
define internal void @ALSA_guess_device_prefix() #0 {
  %1 = alloca ptr, align 8
  %2 = alloca i32, align 4
  %3 = alloca i32, align 4
  %4 = alloca ptr, align 8
  %5 = alloca i32, align 4
  %6 = alloca ptr, align 8
  %7 = alloca i64, align 8
  %8 = load ptr, ptr @ALSA_device_prefix, align 8
  %9 = icmp ne ptr %8, null
  br i1 %9, label %10, label %11

10:                                               ; preds = %0
  br label %84

11:                                               ; preds = %0
  call void @llvm.lifetime.start.p0(i64 8, ptr %1) #7
  store ptr null, ptr %1, align 8
  %12 = load ptr, ptr @ALSA_snd_device_name_hint, align 8
  %13 = call i32 %12(i32 noundef -1, ptr noundef @.str.69, ptr noundef %1)
  %14 = icmp eq i32 %13, 0
  br i1 %14, label %15, label %77

15:                                               ; preds = %11
  call void @llvm.lifetime.start.p0(i64 4, ptr %2) #7
  store i32 0, ptr %2, align 4
  br label %16

16:                                               ; preds = %72, %15
  %17 = load ptr, ptr %1, align 8
  %18 = load i32, ptr %2, align 4
  %19 = sext i32 %18 to i64
  %20 = getelementptr inbounds ptr, ptr %17, i64 %19
  %21 = load ptr, ptr %20, align 8
  %22 = icmp ne ptr %21, null
  br i1 %22, label %24, label %23

23:                                               ; preds = %16
  store i32 2, ptr %3, align 4
  br label %75

24:                                               ; preds = %16
  call void @llvm.lifetime.start.p0(i64 8, ptr %4) #7
  %25 = load ptr, ptr @ALSA_snd_device_name_get_hint, align 8
  %26 = load ptr, ptr %1, align 8
  %27 = load i32, ptr %2, align 4
  %28 = sext i32 %27 to i64
  %29 = getelementptr inbounds ptr, ptr %26, i64 %28
  %30 = load ptr, ptr %29, align 8
  %31 = call ptr %25(ptr noundef %30, ptr noundef @.str.70)
  store ptr %31, ptr %4, align 8
  %32 = load ptr, ptr %4, align 8
  %33 = icmp ne ptr %32, null
  br i1 %33, label %34, label %68

34:                                               ; preds = %24
  call void @llvm.lifetime.start.p0(i64 4, ptr %5) #7
  store i32 0, ptr %5, align 4
  br label %35

35:                                               ; preds = %58, %34
  %36 = load i32, ptr %5, align 4
  %37 = sext i32 %36 to i64
  %38 = icmp ult i64 %37, 3
  br i1 %38, label %40, label %39

39:                                               ; preds = %35
  store i32 5, ptr %3, align 4
  br label %61

40:                                               ; preds = %35
  call void @llvm.lifetime.start.p0(i64 8, ptr %6) #7
  %41 = load i32, ptr %5, align 4
  %42 = sext i32 %41 to i64
  %43 = getelementptr inbounds [3 x ptr], ptr @ALSA_guess_device_prefix.prefixes, i64 0, i64 %42
  %44 = load ptr, ptr %43, align 8
  store ptr %44, ptr %6, align 8
  call void @llvm.lifetime.start.p0(i64 8, ptr %7) #7
  %45 = load ptr, ptr %6, align 8
  %46 = call i64 @SDL_strlen_REAL(ptr noundef %45)
  store i64 %46, ptr %7, align 8
  %47 = load ptr, ptr %4, align 8
  %48 = load ptr, ptr %6, align 8
  %49 = load i64, ptr %7, align 8
  %50 = call i32 @SDL_strncmp_REAL(ptr noundef %47, ptr noundef %48, i64 noundef %49)
  %51 = icmp eq i32 %50, 0
  br i1 %51, label %52, label %54

52:                                               ; preds = %40
  %53 = load ptr, ptr %6, align 8
  store ptr %53, ptr @ALSA_device_prefix, align 8
  store i32 5, ptr %3, align 4
  br label %55

54:                                               ; preds = %40
  store i32 0, ptr %3, align 4
  br label %55

55:                                               ; preds = %54, %52
  call void @llvm.lifetime.end.p0(i64 8, ptr %7) #7
  call void @llvm.lifetime.end.p0(i64 8, ptr %6) #7
  %56 = load i32, ptr %3, align 4
  switch i32 %56, label %61 [
    i32 0, label %57
  ]

57:                                               ; preds = %55
  br label %58

58:                                               ; preds = %57
  %59 = load i32, ptr %5, align 4
  %60 = add nsw i32 %59, 1
  store i32 %60, ptr %5, align 4
  br label %35, !llvm.loop !9

61:                                               ; preds = %55, %39
  call void @llvm.lifetime.end.p0(i64 4, ptr %5) #7
  br label %62

62:                                               ; preds = %61
  %63 = load ptr, ptr %4, align 8
  call void @free(ptr noundef %63) #7
  %64 = load ptr, ptr @ALSA_device_prefix, align 8
  %65 = icmp ne ptr %64, null
  br i1 %65, label %66, label %67

66:                                               ; preds = %62
  store i32 2, ptr %3, align 4
  br label %69

67:                                               ; preds = %62
  br label %68

68:                                               ; preds = %67, %24
  store i32 0, ptr %3, align 4
  br label %69

69:                                               ; preds = %68, %66
  call void @llvm.lifetime.end.p0(i64 8, ptr %4) #7
  %70 = load i32, ptr %3, align 4
  switch i32 %70, label %75 [
    i32 0, label %71
  ]

71:                                               ; preds = %69
  br label %72

72:                                               ; preds = %71
  %73 = load i32, ptr %2, align 4
  %74 = add nsw i32 %73, 1
  store i32 %74, ptr %2, align 4
  br label %16, !llvm.loop !10

75:                                               ; preds = %69, %23
  call void @llvm.lifetime.end.p0(i64 4, ptr %2) #7
  br label %76

76:                                               ; preds = %75
  br label %77

77:                                               ; preds = %76, %11
  %78 = load ptr, ptr @ALSA_device_prefix, align 8
  %79 = icmp ne ptr %78, null
  br i1 %79, label %82, label %80

80:                                               ; preds = %77
  %81 = load ptr, ptr @ALSA_guess_device_prefix.prefixes, align 16
  store ptr %81, ptr @ALSA_device_prefix, align 8
  br label %82

82:                                               ; preds = %80, %77
  %83 = load ptr, ptr @ALSA_device_prefix, align 8
  call void (i32, ptr, ...) @SDL_LogDebug_REAL(i32 noundef 4, ptr noundef @.str.71, ptr noundef %83)
  call void @llvm.lifetime.end.p0(i64 8, ptr %1) #7
  br label %84

84:                                               ; preds = %82, %10
  ret void
}

; Function Attrs: nounwind uwtable
define internal void @ALSA_DetectDevices(ptr noundef %0, ptr noundef %1) #0 {
  %3 = alloca ptr, align 8
  %4 = alloca ptr, align 8
  %5 = alloca i8, align 1
  %6 = alloca i8, align 1
  store ptr %0, ptr %3, align 8
  store ptr %1, ptr %4, align 8
  call void @ALSA_guess_device_prefix()
  call void @llvm.lifetime.start.p0(i64 1, ptr %5) #7
  store i8 0, ptr %5, align 1
  call void @llvm.lifetime.start.p0(i64 1, ptr %6) #7
  store i8 0, ptr %6, align 1
  call void @ALSA_HotplugIteration(ptr noundef %5, ptr noundef %6)
  %7 = load i8, ptr %5, align 1, !range !3, !noundef !4
  %8 = trunc i8 %7 to i1
  br i1 %8, label %9, label %12

9:                                                ; preds = %2
  %10 = call ptr @SDL_AddAudioDevice(i1 noundef zeroext false, ptr noundef @.str.63, ptr noundef null, ptr noundef @default_playback_handle)
  %11 = load ptr, ptr %3, align 8
  store ptr %10, ptr %11, align 8
  br label %12

12:                                               ; preds = %9, %2
  %13 = load i8, ptr %6, align 1, !range !3, !noundef !4
  %14 = trunc i8 %13 to i1
  br i1 %14, label %15, label %18

15:                                               ; preds = %12
  %16 = call ptr @SDL_AddAudioDevice(i1 noundef zeroext true, ptr noundef @.str.64, ptr noundef null, ptr noundef @default_recording_handle)
  %17 = load ptr, ptr %4, align 8
  store ptr %16, ptr %17, align 8
  br label %18

18:                                               ; preds = %15, %12
  %19 = call i32 @SDL_SetAtomicInt_REAL(ptr noundef @ALSA_hotplug_shutdown, i32 noundef 0)
  %20 = call ptr @SDL_CreateThreadRuntime_REAL(ptr noundef @ALSA_HotplugThread, ptr noundef @.str.65, ptr noundef null, ptr noundef null, ptr noundef null)
  store ptr %20, ptr @ALSA_hotplug_thread, align 8
  call void @llvm.lifetime.end.p0(i64 1, ptr %6) #7
  call void @llvm.lifetime.end.p0(i64 1, ptr %5) #7
  ret void
}