; Function Attrs: nounwind uwtable
define internal void @ALSA_DetectDevices(ptr noundef writeonly captures(none) %0, ptr noundef writeonly captures(none) %1) #0 {
  %3 = alloca ptr, align 8
  %4 = alloca i8, align 1
  %5 = alloca i8, align 1
  %6 = load ptr, ptr @ALSA_device_prefix, align 8
  %.not.i = icmp eq ptr %6, null
  br i1 %.not.i, label %7, label %ALSA_guess_device_prefix.exit

7:                                                ; preds = %2
  call void @llvm.lifetime.start.p0(i64 8, ptr nonnull %3) #8
  store ptr null, ptr %3, align 8
  %8 = load ptr, ptr @ALSA_snd_device_name_hint, align 8
  %9 = call i32 %8(i32 noundef -1, ptr noundef nonnull @.str.69, ptr noundef nonnull %3) #8
  %10 = icmp eq i32 %9, 0
  br i1 %10, label %.preheader27.i, label %.loopexit.i

.preheader27.i:                                   ; preds = %7
  %11 = load ptr, ptr %3, align 8
  %12 = load ptr, ptr %11, align 8
  %.not2029.i = icmp eq ptr %12, null
  br i1 %.not2029.i, label %.loopexit.i, label %.lr.ph.i

.lr.ph.i:                                         ; preds = %.preheader27.i, %.critedge26.i
  %indvars.iv34.i = phi i64 [ %indvars.iv.next35.i, %.critedge26.i ], [ 0, %.preheader27.i ]
  %13 = phi ptr [ %26, %.critedge26.i ], [ %12, %.preheader27.i ]
  %14 = load ptr, ptr @ALSA_snd_device_name_get_hint, align 8
  %15 = call ptr %14(ptr noundef nonnull %13, ptr noundef nonnull @.str.70) #8
  %.not21.i = icmp eq ptr %15, null
  br i1 %.not21.i, label %.critedge26.i, label %.critedge.i

16:                                               ; preds = %.critedge.i
  %indvars.iv.next.i = add nuw nsw i64 %indvars.iv.i, 1
  %exitcond.not.i = icmp eq i64 %indvars.iv.next.i, 3
  br i1 %exitcond.not.i, label %thread-pre-split.i, label %.critedge.i, !llvm.loop !3

.critedge.i:                                      ; preds = %.lr.ph.i, %16
  %indvars.iv.i = phi i64 [ %indvars.iv.next.i, %16 ], [ 0, %.lr.ph.i ]
  %17 = getelementptr inbounds nuw [3 x ptr], ptr @ALSA_guess_device_prefix.prefixes, i64 0, i64 %indvars.iv.i
  %18 = load ptr, ptr %17, align 8
  %19 = call i64 @SDL_strlen_REAL(ptr noundef %18) #8
  %20 = call i32 @SDL_strncmp_REAL(ptr noundef nonnull %15, ptr noundef %18, i64 noundef %19) #8
  %.not22.i = icmp eq i32 %20, 0
  br i1 %.not22.i, label %21, label %16

21:                                               ; preds = %.critedge.i
  store ptr %18, ptr @ALSA_device_prefix, align 8
  br label %22

thread-pre-split.i:                               ; preds = %16
  %.pr.i = load ptr, ptr @ALSA_device_prefix, align 8
  br label %22

22:                                               ; preds = %thread-pre-split.i, %21
  %23 = phi ptr [ %.pr.i, %thread-pre-split.i ], [ %18, %21 ]
  call void @free(ptr noundef nonnull %15) #8
  %.not23.i = icmp eq ptr %23, null
  br i1 %.not23.i, label %.critedge26.i, label %.loopexit.i

.critedge26.i:                                    ; preds = %22, %.lr.ph.i
  %indvars.iv.next35.i = add nuw nsw i64 %indvars.iv34.i, 1
  %24 = load ptr, ptr %3, align 8
  %25 = getelementptr inbounds nuw ptr, ptr %24, i64 %indvars.iv.next35.i
  %26 = load ptr, ptr %25, align 8
  %.not20.i = icmp eq ptr %26, null
  br i1 %.not20.i, label %.loopexit.i, label %.lr.ph.i, !llvm.loop !5

.loopexit.i:                                      ; preds = %.critedge26.i, %22, %.preheader27.i, %7
  %27 = load ptr, ptr @ALSA_device_prefix, align 8
  %.not24.i = icmp eq ptr %27, null
  br i1 %.not24.i, label %28, label %29

28:                                               ; preds = %.loopexit.i
  store ptr @.str.66, ptr @ALSA_device_prefix, align 8
  br label %29

29:                                               ; preds = %28, %.loopexit.i
  %30 = phi ptr [ @.str.66, %28 ], [ %27, %.loopexit.i ]
  call void (i32, ptr, ...) @SDL_LogDebug_REAL(i32 noundef 4, ptr noundef nonnull @.str.71, ptr noundef nonnull %30) #8
  call void @llvm.lifetime.end.p0(i64 8, ptr nonnull %3) #8
  br label %ALSA_guess_device_prefix.exit

ALSA_guess_device_prefix.exit:                    ; preds = %2, %29
  call void @llvm.lifetime.start.p0(i64 1, ptr nonnull %4) #8
  store i8 0, ptr %4, align 1
  call void @llvm.lifetime.start.p0(i64 1, ptr nonnull %5) #8
  store i8 0, ptr %5, align 1
  call fastcc void @ALSA_HotplugIteration(ptr noundef nonnull %4, ptr noundef nonnull %5)
  %31 = load i8, ptr %4, align 1, !range !6, !noundef !7
  %32 = trunc nuw i8 %31 to i1
  br i1 %32, label %33, label %35

33:                                               ; preds = %ALSA_guess_device_prefix.exit
  %34 = call ptr @SDL_AddAudioDevice(i1 noundef zeroext false, ptr noundef nonnull @.str.63, ptr noundef null, ptr noundef nonnull @default_playback_handle) #8
  store ptr %34, ptr %0, align 8
  br label %35

35:                                               ; preds = %33, %ALSA_guess_device_prefix.exit
  %36 = load i8, ptr %5, align 1, !range !6, !noundef !7
  %37 = trunc nuw i8 %36 to i1
  br i1 %37, label %38, label %40

38:                                               ; preds = %35
  %39 = call ptr @SDL_AddAudioDevice(i1 noundef zeroext true, ptr noundef nonnull @.str.64, ptr noundef null, ptr noundef nonnull @default_recording_handle) #8
  store ptr %39, ptr %1, align 8
  br label %40

40:                                               ; preds = %38, %35
  %41 = call i32 @SDL_SetAtomicInt_REAL(ptr noundef nonnull @ALSA_hotplug_shutdown, i32 noundef 0) #8
  %42 = call ptr @SDL_CreateThreadRuntime_REAL(ptr noundef nonnull @ALSA_HotplugThread, ptr noundef nonnull @.str.65, ptr noundef null, ptr noundef null, ptr noundef null) #8
  store ptr %42, ptr @ALSA_hotplug_thread, align 8
  call void @llvm.lifetime.end.p0(i64 1, ptr nonnull %5) #8
  call void @llvm.lifetime.end.p0(i64 1, ptr nonnull %4) #8
  ret void
}